; Function Attrs: mustprogress nofree norecurse nosync nounwind willreturn memory(read, inaccessiblemem: none) uwtable
define dso_local ptr @LLVMGetPreviousGlobalAlias(ptr noundef readonly %0) local_unnamed_addr #14 {
  %2 = icmp eq ptr %0, null
  %3 = getelementptr inbounds nuw i8, ptr %0, i64 48
  %spec.select.i.i.i = select i1 %2, ptr null, ptr %3
  %4 = getelementptr inbounds nuw i8, ptr %0, i64 40
  %5 = load ptr, ptr %4, align 8
  %6 = getelementptr inbounds nuw i8, ptr %5, i64 48
  %7 = load ptr, ptr %6, align 8
  %8 = icmp eq ptr %spec.select.i.i.i, %7
  br i1 %8, label %14, label %9

9:                                                ; preds = %1
  %10 = load ptr, ptr %3, align 8
  %11 = icmp eq ptr %10, null
  %12 = getelementptr inbounds i8, ptr %10, i64 -48
  %13 = select i1 %11, ptr null, ptr %12
  br label %14

14:                                               ; preds = %1, %9
  %.0 = phi ptr [ %13, %9 ], [ null, %1 ]
  ret ptr %.0
}